(dp0
Vengine
p1
Vpdflatex
p2
sVpackages
p3
c__builtin__
set
p4
((lp5
Vgeometry
p6
aVtgbonum
p7
aVinputenc
p8
aVamsmath
p9
atp10
Rp11
sVfiles_with_guttermarks
p12
g4
((lp13
V/Users/bob/Desktop/csci4593/hw1/./csci4593_hw1.tex
p14
aV/Users/bob/Desktop/csci4593/hw1/csci4593_hw1.tex
p15
aS'csci4593_hw1.tex'
p16
aV/usr/local/texlive/2014basic/texmf-dist/tex/latex/fontspec/fontspec.sty
p17
atp18
Rp19
sVsynctex
p20
I01
s.