(dp0
Vengine
p1
Vpdflatex
p2
sVpackages
p3
c__builtin__
set
p4
((lp5
Vgeometry
p6
aVamsmath
p7
aVhelvet
p8
atp9
Rp10
sVfiles_with_guttermarks
p11
g4
((lp12
S'csci4593_hw2.tex'
p13
aV/Users/bob/Desktop/csci4593/hw2/./csci4593_hw2.tex
p14
atp15
Rp16
sVsynctex
p17
I01
s.