(dp0
Vengine
p1
Vpdflatex
p2
sVpackages
p3
c__builtin__
set
p4
((lp5
Vgeometry
p6
aVamsmath
p7
aVcourier
p8
atp9
Rp10
sVfiles_with_guttermarks
p11
g4
((lp12
S'StudyGuide.tex'
p13
aV/Users/bob/Desktop/csci4593/Exam1StudyGuide/./StudyGuide.tex
p14
atp15
Rp16
sVsynctex
p17
I01
s.